; Function Attrs: mustprogress nounwind uwtable
define dso_local void @_ZN4node6crypto11ManagedX509C2ERKS1_(ptr nocapture noundef nonnull writeonly align 8 dereferenceable(16) %this, ptr nocapture noundef nonnull readonly align 8 dereferenceable(16) %that) unnamed_addr #4 align 2 {
_ZNSt10unique_ptrI7x509_stN4node15FunctionDeleterIS0_XadL_Z9X509_freeEEEEE5resetEPS0_.exit.i:
  store ptr getelementptr inbounds ({ [10 x ptr] }, ptr @_ZTVN4node6crypto11ManagedX509E, i64 0, i32 0, i64 2), ptr %this, align 8
  %cert_ = getelementptr inbounds i8, ptr %this, i64 8
  store ptr null, ptr %cert_, align 8
  %cert_.i.i = getelementptr inbounds i8, ptr %that, i64 8
  %0 = load ptr, ptr %cert_.i.i, align 8
  store ptr %0, ptr %cert_, align 8
  %cmp.i.not.i = icmp eq ptr %0, null
  br i1 %cmp.i.not.i, label %_ZN4node6crypto11ManagedX509aSERKS1_.exit, label %if.then.i

if.then.i:                                        ; preds = %_ZNSt10unique_ptrI7x509_stN4node15FunctionDeleterIS0_XadL_Z9X509_freeEEEEE5resetEPS0_.exit.i
  %call6.i = tail call i32 @X509_up_ref(ptr noundef nonnull %0) #17
  br label %_ZN4node6crypto11ManagedX509aSERKS1_.exit

_ZN4node6crypto11ManagedX509aSERKS1_.exit:        ; preds = %_ZNSt10unique_ptrI7x509_stN4node15FunctionDeleterIS0_XadL_Z9X509_freeEEEEE5resetEPS0_.exit.i, %if.then.i
  ret void
}